(dp0
S'id_6048'
p1
(lp2
S'H51_I'
p3
aS'H52_D'
p4
aS'H55_E'
p5
asS'id_8772'
p6
(lp7
S'H52_S'
p8
aS'H54_N'
p9
aS'H57_N'
p10
asS'id_8678'
p11
(lp12
S'H54_K'
p13
asS'id_8679'
p14
(lp15
S'H54_K'
p16
aS'H55_T'
p17
aS'H57_N'
p18
asS'id_8676'
p19
(lp20
S'H54_I'
p21
aS'H57_N'
p22
asS'id_6611'
p23
(lp24
S'H51_I'
p25
aS'H55_T'
p26
aS'H57_G'
p27
asS'id_8810'
p28
(lp29
S'H52_Y'
p30
aS'H55_N'
p31
aS'H58_S'
p32
asS'id_6645'
p33
(lp34
S'H51_I'
p35
aS'H54_K'
p36
asS'id_6720'
p37
(lp38
S'H51_I'
p39
aS'H54_S'
p40
asS'id_6726'
p41
(lp42
S'H51_I'
p43
aS'H54_S'
p44
aS'H55_T'
p45
asS'id_8684'
p46
(lp47
S'H54_N'
p48
aS'H57_N'
p49
asS'id_6701'
p50
(lp51
S'H51_I'
p52
aS'H54_R'
p53
aS'H55_T'
p54
asS'id_6667'
p55
(lp56
S'H51_I'
p57
aS'H54_N'
p58
aS'H55_Q'
p59
asS'id_8683'
p60
(lp61
S'H54_N'
p62
aS'H55_R'
p63
aS'H57_N'
p64
asS'id_6694'
p65
(lp66
S'H51_I'
p67
aS'H54_R'
p68
aS'H55_N'
p69
asS'id_6651'
p70
(lp71
S'H51_I'
p72
aS'H54_N'
p73
aS'H55_G'
p74
asS'id_6325'
p75
(lp76
S'H51_I'
p77
aS'H52_H'
p78
aS'H54_N'
p79
asS'id_6672'
p80
(lp81
S'H51_I'
p82
aS'H54_N'
p83
aS'H57_G'
p84
asS'id_6698'
p85
(lp86
S'H51_I'
p87
aS'H54_R'
p88
aS'H58_S'
p89
asS'id_6699'
p90
(lp91
S'H51_I'
p92
aS'H54_R'
p93
asS'id_8693'
p94
(lp95
S'H54_Y'
p96
aS'H57_N'
p97
asS'id_6656'
p98
(lp99
S'H51_I'
p100
aS'H54_N'
p101
aS'H55_I'
p102
asS'id_6659'
p103
(lp104
S'H51_I'
p105
aS'H54_N'
p106
aS'H55_N'
p107
asS'id_6636'
p108
(lp109
S'H51_I'
p110
aS'H54_H'
p111
asS'id_6630'
p112
(lp113
S'H51_I'
p114
aS'H54_G'
p115
asS'id_6670'
p116
(lp117
S'H51_I'
p118
aS'H54_N'
p119
asS'id_6711'
p120
(lp121
S'H51_I'
p122
aS'H54_S'
p123
aS'H55_N'
p124
asS'id_6673'
p125
(lp126
S'H51_I'
p127
aS'H54_N'
p128
aS'H57_R'
p129
asS'id_6674'
p130
(lp131
S'H51_I'
p132
aS'H54_N'
p133
aS'H57_T'
p134
asS'id_6677'
p135
(lp136
S'H51_I'
p137
aS'H54_N'
p138
aS'H55_T'
p139
as.