(dp0
S'id_1924'
p1
(lp2
S'H109_H'
p3
asS'id_2130'
p4
(lp5
S'H107_T'
p6
aS'H110_D'
p7
aS'H111_G'
p8
asS'id_4600'
p9
(lp10
S'H102_A'
p11
aS'H104_A'
p12
aS'H105_Y'
p13
aS'H107_T'
p14
asS'id_2250'
p15
(lp16
S'H107_T'
p17
aS'H109_H'
p18
aS'H110_D'
p19
aS'H111_G'
p20
asS'id_1482'
p21
(lp22
S'H108_P'
p23
aS'H109_G'
p24
asS'id_1581'
p25
(lp26
S'H110_G'
p27
asS'id_1359'
p28
(lp29
S'H103_V'
p30
aS'H104_P'
p31
aS'H105_A'
p32
aS'H106_A'
p33
aS'H107_R'
p34
aS'H108_P'
p35
asS'id_1211'
p36
(lp37
sS'id_1836'
p38
(lp39
sS'id_1402'
p40
(lp41
S'H104_I'
p42
aS'H106_S'
p43
aS'H107_T'
p44
aS'H110_P'
p45
aS'H111_I'
p46
aS'H112_L'
p47
asS'id_2300'
p48
(lp49
S'H105_S'
p50
aS'H106_T'
p51
aS'H109_R'
p52
aS'H110_D'
p53
aS'H111_G'
p54
asS'id_4610'
p55
(lp56
S'H105_T'
p57
aS'H106_S'
p58
aS'H107_H'
p59
asS'id_3601'
p60
(lp61
S'H107_F'
p62
aS'H110_G'
p63
aS'H111_E'
p64
asS'id_3492'
p65
(lp66
S'H108_F'
p67
aS'H111_A'
p68
asS'id_9360'
p69
(lp70
S'H109_H'
p71
asS'id_6540'
p72
(lp73
S'H107_L'
p74
aS'H108_A'
p75
aS'H109_M'
p76
aS'H112_L'
p77
asS'id_3567'
p78
(lp79
S'H100_R'
p80
aS'H101_R'
p81
aS'H102_H'
p82
aS'H104_N'
p83
aS'H106_A'
p84
aS'H107_D'
p85
aS'H109_F'
p86
asS'id_2670'
p87
(lp88
S'H103_A'
p89
aS'H105_S'
p90
aS'H106_A'
p91
aS'H107_D'
p92
aS'H108_V'
p93
asS'id_3561'
p94
(lp95
S'H98_N'
p96
aS'H100_R'
p97
aS'H101_R'
p98
aS'H102_Y'
p99
aS'H104_N'
p100
aS'H106_A'
p101
aS'H107_D'
p102
aS'H109_F'
p103
asS'id_1328'
p104
(lp105
S'H104_R'
p106
aS'H110_S'
p107
asS'id_1777'
p108
(lp109
sS'id_7250'
p110
(lp111
S'H99_A'
p112
aS'H101_S'
p113
aS'H102_Y'
p114
aS'H105_S'
p115
aS'H106_T'
p116
aS'H107_N'
p117
aS'H110_R'
p118
aS'H111_Y'
p119
aS'H112_Y'
p120
aS'H113_Q'
p121
asS'id_2673'
p122
(lp123
S'H107_L'
p124
aS'H108_D'
p125
aS'H109_L'
p126
aS'H110_D'
p127
asS'id_1944'
p128
(lp129
S'H105_N'
p130
aS'H107_V'
p131
aS'H109_Q'
p132
aS'H110_R'
p133
asS'id_2140'
p134
(lp135
S'H105_S'
p136
aS'H106_T'
p137
aS'H107_I'
p138
aS'H110_D'
p139
aS'H111_G'
p140
asS'id_2249'
p141
(lp142
S'H105_N'
p143
aS'H106_T'
p144
aS'H107_F'
p145
aS'H110_G'
p146
asS'id_3560'
p147
(lp148
S'H100_R'
p149
aS'H101_R'
p150
aS'H102_Y'
p151
aS'H104_N'
p152
aS'H106_A'
p153
aS'H107_D'
p154
aS'H109_F'
p155
asS'id_3480'
p156
(lp157
sS'id_3511'
p158
(lp159
S'H108_L'
p160
aS'H109_H'
p161
asS'id_2734'
p162
(lp163
sS'id_2404'
p164
(lp165
sS'id_5220'
p166
(lp167
S'H110_S'
p168
asS'id_1505'
p169
(lp170
S'H103_A'
p171
aS'H104_R'
p172
aS'H107_D'
p173
aS'H108_A'
p174
aS'H111_Y'
p175
aS'H112_Y'
p176
asS'id_7000'
p177
(lp178
sS'id_1538'
p179
(lp180
S'H98_R'
p181
aS'H100_G'
p182
aS'H101_R'
p183
aS'H102_Y'
p184
aS'H105_S'
p185
aS'H106_T'
p186
aS'H107_T'
p187
aS'H110_S'
p188
asS'id_2323'
p189
(lp190
S'H107_F'
p191
aS'H109_F'
p192
aS'H110_G'
p193
aS'H111_Y'
p194
aS'H112_Y'
p195
asS'id_2653'
p196
(lp197
S'H109_S'
p198
aS'H110_D'
p199
aS'H111_G'
p200
asS'id_3667'
p201
(lp202
S'H108_P'
p203
aS'H109_S'
p204
aS'H113_H'
p205
asS'id_2200'
p206
(lp207
S'H102_N'
p208
aS'H105_R'
p209
aS'H106_T'
p210
aS'H107_L'
p211
aS'H110_D'
p212
aS'H111_G'
p213
aS'H113_N'
p214
asS'id_2280'
p215
(lp216
S'H105_S'
p217
aS'H106_T'
p218
aS'H107_N'
p219
aS'H110_D'
p220
aS'H111_A'
p221
asS'id_2046'
p222
(lp223
S'H108_S'
p224
aS'H110_W'
p225
aS'H111_Y'
p226
asS'id_3540'
p227
(lp228
S'H107_R'
p229
aS'H109_S'
p230
aS'H110_G'
p231
asS'id_5790'
p232
(lp233
S'H100_G'
p234
aS'H101_V'
p235
aS'H102_T'
p236
aS'H103_L'
p237
aS'H104_V'
p238
aS'H105_R'
p239
aS'H107_A'
p240
aS'H108_K'
p241
aS'H109_I'
p242
asS'id_1610'
p243
(lp244
S'H107_N'
p245
asS'id_1697'
p246
(lp247
sS'id_2777'
p248
(lp249
S'H108_G'
p250
aS'H109_L'
p251
aS'H110_H'
p252
asS'id_8190'
p253
(lp254
sS'id_1806'
p255
(lp256
sS'id_2195'
p257
(lp258
S'H104_R'
p259
aS'H107_T'
p260
aS'H110_L'
p261
aS'H111_F'
p262
asS'id_2190'
p263
(lp264
S'H102_N'
p265
aS'H105_N'
p266
aS'H106_V'
p267
aS'H107_V'
p268
aS'H110_D'
p269
aS'H111_G'
p270
asS'id_5400'
p271
(lp272
S'H105_S'
p273
aS'H106_A'
p274
aS'H107_T'
p275
aS'H110_Y'
p276
aS'H111_Y'
p277
asS'id_1962'
p278
(lp279
S'H98_R'
p280
aS'H99_L'
p281
aS'H100_T'
p282
aS'H101_S'
p283
aS'H107_N'
p284
aS'H110_Q'
p285
aS'H111_A'
p286
asS'id_9190'
p287
(lp288
S'H100_D'
p289
aS'H101_G'
p290
aS'H102_K'
p291
aS'H104_G'
p292
aS'H107_R'
p293
aS'H110_S'
p294
aS'H111_G'
p295
aS'H112_L'
p296
asS'id_1256'
p297
(lp298
S'H104_E'
p299
aS'H108_G'
p300
aS'H110_D'
p301
aS'H111_F'
p302
asS'id_1255'
p303
(lp304
S'H110_D'
p305
aS'H111_F'
p306
asS'id_2057'
p307
(lp308
sS'id_3585'
p309
(lp310
S'H107_G'
p311
aS'H108_S'
p312
aS'H109_S'
p313
aS'H112_L'
p314
asS'id_2053'
p315
(lp316
S'H104_P'
p317
aS'H106_S'
p318
aS'H107_A'
p319
aS'H110_D'
p320
asS'id_2290'
p321
(lp322
S'H105_S'
p323
aS'H106_T'
p324
aS'H109_H'
p325
aS'H110_D'
p326
aS'H111_A'
p327
asS'id_1729'
p328
(lp329
sS'id_4710'
p330
(lp331
S'H100_D'
p332
aS'H101_G'
p333
aS'H102_K'
p334
aS'H104_G'
p335
aS'H110_S'
p336
aS'H111_G'
p337
aS'H112_L'
p338
asS'id_2260'
p339
(lp340
S'H107_T'
p341
aS'H109_L'
p342
aS'H110_D'
p343
aS'H111_G'
p344
asS'id_1058'
p345
(lp346
sS'id_2180'
p347
(lp348
S'H102_N'
p349
aS'H110_D'
p350
aS'H111_G'
p351
asS'id_2438'
p352
(lp353
S'H102_R'
p354
aS'H103_V'
p355
aS'H104_Q'
p356
aS'H105_Y'
p357
aS'H106_S'
p358
aS'H107_G'
p359
aS'H108_Y'
p360
aS'H110_D'
p361
asS'id_2748'
p362
(lp363
S'H104_R'
p364
aS'H107_T'
p365
aS'H109_W'
p366
aS'H110_G'
p367
asS'id_1240'
p368
(lp369
S'H109_H'
p370
asS'id_1241'
p371
(lp372
sS'id_4480'
p373
(lp374
S'H112_L'
p375
asS'id_9750'
p376
(lp377
S'H106_A'
p378
aS'H107_A'
p379
aS'H108_S'
p380
aS'H109_F'
p381
aS'H110_R'
p382
aS'H113_A'
p383
asS'id_1534'
p384
(lp385
S'H108_A'
p386
aS'H110_T'
p387
aS'H112_L'
p388
asS'id_2277'
p389
(lp390
S'H107_T'
p391
asS'id_4700'
p392
(lp393
S'H100_D'
p394
aS'H101_G'
p395
aS'H102_K'
p396
aS'H104_A'
p397
aS'H110_S'
p398
aS'H111_G'
p399
aS'H112_L'
p400
asS'id_9430'
p401
(lp402
S'H104_G'
p403
aS'H107_R'
p404
asS'id_1022'
p405
(lp406
S'H104_T'
p407
aS'H107_V'
p408
aS'H110_T'
p409
asS'id_2773'
p410
(lp411
S'H104_G'
p412
aS'H110_H'
p413
aS'H111_S'
p414
asS'id_1029'
p415
(lp416
S'H103_L'
p417
aS'H104_T'
p418
aS'H105_T'
p419
aS'H106_L'
p420
aS'H107_T'
p421
aS'H108_S'
p422
aS'H112_W'
p423
asS'id_1780'
p424
(lp425
S'H100_H'
p426
aS'H102_S'
p427
aS'H105_A'
p428
aS'H106_R'
p429
asS'id_1783'
p430
(lp431
S'H102_H'
p432
aS'H107_T'
p433
asS'id_1706'
p434
(lp435
S'H105_S'
p436
aS'H109_P'
p437
asS'id_2170'
p438
(lp439
S'H102_N'
p440
aS'H104_N'
p441
aS'H105_S'
p442
aS'H106_T'
p443
aS'H107_T'
p444
aS'H109_H'
p445
aS'H110_D'
p446
aS'H111_G'
p447
asS'id_1239'
p448
(lp449
sS'id_3632'
p450
(lp451
S'H104_G'
p452
aS'H107_F'
p453
aS'H110_G'
p454
aS'H111_E'
p455
asS'id_3446'
p456
(lp457
S'H107_T'
p458
aS'H109_D'
p459
aS'H112_Y'
p460
asS'id_8400'
p461
(lp462
S'H99_A'
p463
aS'H100_R'
p464
aS'H102_Y'
p465
aS'H109_F'
p466
aS'H110_D'
p467
aS'H111_T'
p468
asS'id_1544'
p469
(lp470
S'H98_R'
p471
aS'H100_G'
p472
aS'H101_S'
p473
aS'H102_R'
p474
aS'H107_N'
p475
aS'H110_G'
p476
asS'id_5610'
p477
(lp478
S'H106_T'
p479
aS'H109_R'
p480
aS'H110_D'
p481
aS'H111_Y'
p482
asS'id_9150'
p483
(lp484
S'H106_A'
p485
aS'H107_T'
p486
aS'H108_A'
p487
aS'H109_H'
p488
asS'id_8920'
p489
(lp490
S'H105_S'
p491
aS'H106_T'
p492
aS'H107_R'
p493
aS'H110_F'
p494
asS'id_2240'
p495
(lp496
S'H109_F'
p497
aS'H110_D'
p498
aS'H111_G'
p499
asS'id_2080'
p500
(lp501
S'H105_E'
p502
aS'H106_T'
p503
aS'H109_S'
p504
aS'H110_D'
p505
aS'H111_G'
p506
asS'id_2615'
p507
(lp508
S'H105_S'
p509
aS'H106_T'
p510
aS'H110_D'
p511
aS'H111_Y'
p512
asS'id_2164'
p513
(lp514
S'H106_L'
p515
aS'H107_E'
p516
aS'H108_R'
p517
aS'H109_H'
p518
aS'H112_L'
p519
asS'id_1157'
p520
(lp521
S'H98_R'
p522
aS'H99_D'
p523
aS'H100_T'
p524
aS'H101_E'
p525
aS'H105_S'
p526
aS'H106_T'
p527
aS'H107_T'
p528
asS'id_7070'
p529
(lp530
S'H104_R'
p531
aS'H109_S'
p532
aS'H110_G'
p533
aS'H111_Y'
p534
aS'H112_M'
p535
as.