(dp0
S'111AH'
p1
(lp2
S'GLY'
p3
aS'ARG'
p4
aS'SER'
p5
asS'112H'
p6
(lp7
S'PHE'
p8
aS'HIS'
p9
aS'SER'
p10
aS'TYR'
p11
asS'110H'
p12
(lp13
S'TYR'
p14
aS'ASP'
p15
asS'112CH'
p16
(lp17
S'ALA'
p18
aS'THR'
p19
aS'GLY'
p20
asS'113H'
p21
(lp22
S'ASP'
p23
ag3
ag10
aS'ASN'
p24
asS'115H'
p25
(lp26
S'LEU'
p27
aS'PHE'
p28
asS'112BH'
p29
(lp30
g23
aS'ASN'
p31
ag4
ag19
aS'SER'
p32
asS'111BH'
p33
(lp34
g10
aS'GLY'
p35
asS'114H'
p36
(lp37
g3
ag14
aS'TRP'
p38
as.