(dp0
S'id_2217'
p1
(lp2
sS'id_2310'
p3
(lp4
S'H107_T'
p5
aS'H109_L'
p6
aS'H110_D'
p7
aS'H111_G'
p8
asS'id_6380'
p9
(lp10
S'H105_S'
p11
aS'H106_A'
p12
aS'H107_T'
p13
aS'H110_Y'
p14
aS'H111_Y'
p15
asS'id_1857'
p16
(lp17
sS'id_12594'
p18
(lp19
S'H108_F'
p20
aS'H111_A'
p21
asS'id_12717'
p22
(lp23
S'H98_N'
p24
aS'H100_R'
p25
aS'H101_R'
p26
aS'H102_Y'
p27
aS'H104_N'
p28
aS'H106_A'
p29
aS'H107_D'
p30
aS'H109_F'
p31
asS'id_12716'
p32
(lp33
S'H100_R'
p34
aS'H101_R'
p35
aS'H102_Y'
p36
aS'H104_N'
p37
aS'H106_A'
p38
aS'H107_D'
p39
aS'H109_F'
p40
asS'id_2330'
p41
(lp42
S'H105_S'
p43
aS'H106_T'
p44
aS'H107_N'
p45
aS'H110_D'
p46
aS'H111_A'
p47
asS'id_1398'
p48
(lp49
sS'id_1399'
p50
(lp51
S'H109_H'
p52
asS'id_1102'
p53
(lp54
S'H104_G'
p55
aS'H107_R'
p56
asS'id_1642'
p57
(lp58
S'H108_P'
p59
aS'H109_G'
p60
asS'id_1943'
p61
(lp62
S'H102_H'
p63
aS'H107_T'
p64
asS'id_2566'
p65
(lp66
sS'id_2484'
p67
(lp68
S'H107_F'
p69
aS'H109_F'
p70
aS'H110_G'
p71
aS'H111_Y'
p72
aS'H112_Y'
p73
asS'id_12758'
p74
(lp75
S'H107_F'
p76
aS'H110_G'
p77
aS'H111_E'
p78
asS'id_12665'
p79
(lp80
S'H108_L'
p81
aS'H109_H'
p82
asS'id_2230'
p83
(lp84
S'H102_N'
p85
aS'H110_D'
p86
aS'H111_G'
p87
asS'id_2600'
p88
(lp89
S'H102_R'
p90
aS'H103_V'
p91
aS'H104_Q'
p92
aS'H105_Y'
p93
aS'H106_S'
p94
aS'H107_G'
p95
aS'H108_Y'
p96
aS'H110_D'
p97
asS'id_1937'
p98
(lp99
sS'id_1704'
p100
(lp101
S'H98_R'
p102
aS'H100_G'
p103
aS'H101_S'
p104
aS'H102_R'
p105
aS'H107_N'
p106
aS'H110_G'
p107
asS'id_2971'
p108
(lp109
S'H108_G'
p110
aS'H109_L'
p111
aS'H110_H'
p112
asS'id_5460'
p113
(lp114
S'H112_L'
p115
asS'id_5680'
p116
(lp117
S'H100_D'
p118
aS'H101_G'
p119
aS'H102_K'
p120
aS'H104_A'
p121
aS'H110_S'
p122
aS'H111_G'
p123
aS'H112_L'
p124
asS'id_2780'
p125
(lp126
S'H105_S'
p127
aS'H106_T'
p128
aS'H110_D'
p129
aS'H111_Y'
p130
asS'id_1694'
p131
(lp132
S'H108_A'
p133
aS'H110_T'
p134
aS'H112_L'
p135
asS'id_1217'
p136
(lp137
sS'id_1415'
p138
(lp139
S'H104_E'
p140
aS'H108_G'
p141
aS'H110_D'
p142
aS'H111_F'
p143
asS'id_2290'
p144
(lp145
S'H109_F'
p146
aS'H110_D'
p147
aS'H111_G'
p148
asS'id_8190'
p149
(lp150
sS'id_1741'
p151
(lp152
S'H110_G'
p153
asS'id_9990'
p154
(lp155
S'H99_A'
p156
aS'H100_R'
p157
aS'H102_Y'
p158
aS'H109_F'
p159
aS'H110_D'
p160
aS'H111_T'
p161
asS'id_8700'
p162
(lp163
S'H99_A'
p164
aS'H101_S'
p165
aS'H102_Y'
p166
aS'H105_S'
p167
aS'H106_T'
p168
aS'H107_N'
p169
aS'H110_R'
p170
aS'H111_Y'
p171
aS'H112_Y'
p172
aS'H113_Q'
p173
asS'id_1188'
p174
(lp175
S'H103_L'
p176
aS'H104_T'
p177
aS'H105_T'
p178
aS'H106_L'
p179
aS'H107_T'
p180
aS'H108_S'
p181
aS'H112_W'
p182
asS'id_2220'
p183
(lp184
S'H102_N'
p185
aS'H104_N'
p186
aS'H105_S'
p187
aS'H106_T'
p188
aS'H107_T'
p189
aS'H109_H'
p190
aS'H110_D'
p191
aS'H111_G'
p192
asS'id_6590'
p193
(lp194
S'H106_T'
p195
aS'H109_R'
p196
aS'H110_D'
p197
aS'H111_Y'
p198
asS'id_1996'
p199
(lp200
sS'id_1770'
p201
(lp202
S'H107_N'
p203
asS'id_1181'
p204
(lp205
S'H104_T'
p206
aS'H107_V'
p207
aS'H110_T'
p208
asS'id_2350'
p209
(lp210
S'H105_S'
p211
aS'H106_T'
p212
aS'H109_R'
p213
aS'H110_D'
p214
aS'H111_G'
p215
asS'id_1940'
p216
(lp217
S'H100_H'
p218
aS'H102_S'
p219
aS'H105_A'
p220
aS'H106_R'
p221
asS'id_1400'
p222
(lp223
sS'id_6200'
p224
(lp225
S'H110_S'
p226
asS'id_2300'
p227
(lp228
S'H107_T'
p229
aS'H109_H'
p230
aS'H110_D'
p231
aS'H111_G'
p232
asS'id_1095'
p233
(lp234
S'H109_H'
p235
asS'id_9780'
p236
(lp237
sS'id_2084'
p238
(lp239
S'H109_H'
p240
asS'id_4290'
p241
(lp242
S'H107_R'
p243
aS'H109_S'
p244
aS'H110_G'
p245
asS'id_2206'
p246
(lp247
S'H108_S'
p248
aS'H110_W'
p249
aS'H111_Y'
p250
asS'id_2180'
p251
(lp252
S'H107_T'
p253
aS'H110_D'
p254
aS'H111_G'
p255
asS'id_2356'
p256
(lp257
S'H104_R'
p258
aS'H107_T'
p259
aS'H110_L'
p260
aS'H111_F'
p261
asS'id_2240'
p262
(lp263
S'H102_N'
p264
aS'H105_N'
p265
aS'H106_V'
p266
aS'H107_V'
p267
aS'H110_D'
p268
aS'H111_G'
p269
asS'id_2324'
p270
(lp271
S'H106_L'
p272
aS'H107_E'
p273
aS'H108_R'
p274
aS'H109_H'
p275
aS'H112_L'
p276
asS'id_1316'
p277
(lp278
S'H98_R'
p279
aS'H99_D'
p280
aS'H100_T'
p281
aS'H101_E'
p282
aS'H105_S'
p283
aS'H106_T'
p284
aS'H107_T'
p285
asS'id_1966'
p286
(lp287
sS'id_2104'
p288
(lp289
S'H105_N'
p290
aS'H107_V'
p291
aS'H109_Q'
p292
aS'H110_R'
p293
asS'id_12723'
p294
(lp295
S'H100_R'
p296
aS'H101_R'
p297
aS'H102_H'
p298
aS'H104_N'
p299
aS'H106_A'
p300
aS'H107_D'
p301
aS'H109_F'
p302
asS'id_1561'
p303
(lp304
S'H104_I'
p305
aS'H106_S'
p306
aS'H107_T'
p307
aS'H110_P'
p308
aS'H111_I'
p309
aS'H112_L'
p310
asS'id_2340'
p311
(lp312
S'H105_S'
p313
aS'H106_T'
p314
aS'H109_H'
p315
aS'H110_D'
p316
aS'H111_A'
p317
asS'id_2438'
p318
(lp319
S'H107_T'
p320
asS'id_12741'
p321
(lp322
S'H107_G'
p323
aS'H108_S'
p324
aS'H109_S'
p325
aS'H112_L'
p326
asS'id_8470'
p327
(lp328
S'H104_R'
p329
aS'H109_S'
p330
aS'H110_G'
p331
aS'H111_Y'
p332
aS'H112_M'
p333
asS'id_4200'
p334
(lp335
sS'id_2190'
p336
(lp337
S'H105_S'
p338
aS'H106_T'
p339
aS'H107_I'
p340
aS'H110_D'
p341
aS'H111_G'
p342
asS'id_2925'
p343
(lp344
sS'id_2940'
p345
(lp346
S'H104_R'
p347
aS'H107_T'
p348
aS'H109_W'
p349
aS'H110_G'
p350
asS'id_1487'
p351
(lp352
S'H104_R'
p353
aS'H110_S'
p354
asS'id_1051'
p355
(lp356
S'H105_S'
p357
aS'H106_T'
p358
aS'H107_R'
p359
aS'H110_F'
p360
asS'id_1370'
p361
(lp362
sS'id_2122'
p363
(lp364
S'H98_R'
p365
aS'H99_L'
p366
aS'H100_T'
p367
aS'H101_S'
p368
aS'H107_N'
p369
aS'H110_Q'
p370
aS'H111_A'
p371
asS'id_1074'
p372
(lp373
S'H106_A'
p374
aS'H107_T'
p375
aS'H108_A'
p376
aS'H109_H'
p377
asS'id_2410'
p378
(lp379
S'H105_N'
p380
aS'H106_T'
p381
aS'H107_F'
p382
aS'H110_G'
p383
asS'id_1078'
p384
(lp385
S'H100_D'
p386
aS'H101_G'
p387
aS'H102_K'
p388
aS'H104_G'
p389
aS'H107_R'
p390
aS'H110_S'
p391
aS'H111_G'
p392
aS'H112_L'
p393
asS'id_12875'
p394
(lp395
S'H108_P'
p396
aS'H109_S'
p397
aS'H113_H'
p398
asS'id_6770'
p399
(lp400
S'H100_G'
p401
aS'H101_V'
p402
aS'H102_T'
p403
aS'H103_L'
p404
aS'H104_V'
p405
aS'H105_R'
p406
aS'H107_A'
p407
aS'H108_K'
p408
aS'H109_I'
p409
asS'id_1889'
p410
(lp411
sS'id_12791'
p412
(lp413
S'H104_G'
p414
aS'H107_F'
p415
aS'H110_G'
p416
aS'H111_E'
p417
asS'id_1414'
p418
(lp419
S'H110_D'
p420
aS'H111_F'
p421
asS'id_2849'
p422
(lp423
S'H107_L'
p424
aS'H108_D'
p425
aS'H109_L'
p426
aS'H110_D'
p427
asS'id_7520'
p428
(lp429
S'H107_L'
p430
aS'H108_A'
p431
aS'H109_M'
p432
aS'H112_L'
p433
asS'id_2846'
p434
(lp435
S'H103_A'
p436
aS'H105_S'
p437
aS'H106_A'
p438
aS'H107_D'
p439
aS'H108_V'
p440
asS'id_2967'
p441
(lp442
S'H104_G'
p443
aS'H110_H'
p444
aS'H111_S'
p445
asS'id_1518'
p446
(lp447
S'H103_V'
p448
aS'H104_P'
p449
aS'H105_A'
p450
aS'H106_A'
p451
aS'H107_R'
p452
aS'H108_P'
p453
asS'id_2827'
p454
(lp455
S'H109_S'
p456
aS'H110_D'
p457
aS'H111_G'
p458
asS'id_5690'
p459
(lp460
S'H100_D'
p461
aS'H101_G'
p462
aS'H102_K'
p463
aS'H104_G'
p464
aS'H110_S'
p465
aS'H111_G'
p466
aS'H112_L'
p467
as.