(dp0
S'111AH'
p1
(lp2
S'ALA'
p3
aS'GLU'
p4
aS'GLY'
p5
aS'ILE'
p6
aS'ASN'
p7
aS'GLN'
p8
aS'PRO'
p9
aS'ARG'
p10
aS'THR'
p11
aS'VAL'
p12
aS'SER'
p13
asS'109H'
p14
(lp15
S'SER'
p16
ag10
ag4
ag5
ag12
aS'ALA'
p17
asS'112H'
p18
(lp19
g5
aS'PHE'
p20
ag6
aS'HIS'
p21
aS'MET'
p22
aS'LEU'
p23
ag8
ag16
ag10
aS'TRP'
p24
aS'TYR'
p25
asS'110H'
p26
(lp27
g21
aS'LYS'
p28
ag7
ag16
ag10
ag11
aS'TYR'
p29
aS'ASP'
p30
asS'112CH'
p31
(lp32
g3
ag23
ag16
ag10
ag11
ag12
aS'GLY'
p33
asS'106H'
p34
(lp35
g10
ag7
aS'THR'
p36
asS'111H'
p37
(lp38
g3
ag23
ag12
aS'CYS'
p39
asS'113H'
p40
(lp41
S'ASP'
p42
ag5
ag20
ag21
ag23
ag8
ag9
ag16
ag10
ag11
ag24
ag29
aS'ASN'
p43
asS'115H'
p44
(lp45
g29
ag22
ag23
ag24
aS'PHE'
p46
asS'107H'
p47
(lp48
g3
ag23
ag42
aS'GLY'
p49
asS'112BH'
p50
(lp51
g3
ag4
ag42
ag5
ag20
ag6
ag23
ag7
ag10
ag11
ag12
aS'SER'
p52
asS'111BH'
p53
(lp54
g3
ag7
ag16
ag10
ag11
ag29
aS'GLY'
p55
asS'114H'
p56
(lp57
g3
ag4
ag5
ag20
ag6
ag16
ag11
ag29
aS'TRP'
p58
asS'116H'
p59
(lp60
g8
ag21
aS'ASP'
p61
asS'112AH'
p62
(lp63
g3
ag42
ag5
ag20
ag28
ag23
ag9
ag16
ag10
ag12
ag29
aS'CYS'
p64
asS'108H'
p65
(lp66
g21
ag10
ag11
ag5
ag42
aS'ASN'
p67
as.