(dp0
S'64H'
p1
(lp2
S'ARG'
p3
aS'THR'
p4
aS'GLY'
p5
aS'ASN'
p6
aS'ASP'
p7
asS'65H'
p8
(lp9
S'SER'
p10
aS'THR'
p11
asS'56H'
p12
(lp13
S'ILE'
p14
aS'MET'
p15
asS'57H'
p16
(lp17
S'TYR'
p18
aS'HIS'
p19
ag10
aS'ASP'
p20
aS'ASN'
p21
asS'59H'
p22
(lp23
g5
ag14
ag19
aS'LYS'
p24
ag6
ag10
ag3
ag18
aS'ASP'
p25
asS'62H'
p26
(lp27
S'GLU'
p28
ag5
ag14
ag6
aS'GLN'
p29
ag3
ag4
aS'SER'
p30
as.