(dp0
S'id_8979'
p1
(lp2
S'L92_N'
p3
aS'L95_N'
p4
aS'L97_P'
p5
asS'id_8978'
p6
(lp7
S'L92_N'
p8
aS'L95_D'
p9
asS'id_8977'
p10
(lp11
S'L92_N'
p12
aS'L93_I'
p13
aS'L95_N'
p14
aS'L97_Q'
p15
asS'id_1084'
p16
(lp17
S'L96_Y'
p18
asS'id_2831'
p19
(lp20
S'L92_S'
p21
aS'L95_N'
p22
aS'L97_P'
p23
asS'id_2400'
p24
(lp25
S'L92_P'
p26
aS'L96_N'
p27
asS'id_1428'
p28
(lp29
S'L92_N'
p30
aS'L95_F'
p31
asS'id_1208'
p32
(lp33
S'L89_A'
p34
aS'L92_N'
p35
asS'id_1498'
p36
(lp37
S'L92_S'
p38
aS'L96_R'
p39
asS'id_8961'
p40
(lp41
S'L90_A'
p42
aS'L92_S'
p43
aS'L95_N'
p44
aS'L97_V'
p45
asS'id_11972'
p46
(lp47
S'L88_S'
p48
aS'L92_R'
p49
aS'L95_N'
p50
aS'L97_V'
p51
aS'L98_L'
p52
asS'id_11973'
p53
(lp54
S'L88_S'
p55
aS'L92_S'
p56
aS'L95_N'
p57
aS'L97_W'
p58
asS'id_8981'
p59
(lp60
S'L92_S'
p61
aS'L94_A'
p62
aS'L95_N'
p63
aS'L97_Q'
p64
asS'id_8984'
p65
(lp66
S'L92_S'
p67
aS'L95_N'
p68
aS'L97_W'
p69
asS'id_8985'
p70
(lp71
S'L92_S'
p72
aS'L94_S'
p73
aS'L95_N'
p74
asS'id_8986'
p75
(lp76
S'L93_N'
p77
aS'L96_R'
p78
aS'L97_P'
p79
asS'id_8980'
p80
(lp81
S'L92_N'
p82
aS'L95_N'
p83
aS'L97_W'
p84
asS'id_1307'
p85
(lp86
S'L89_A'
p87
aS'L92_S'
p88
aS'L95_W'
p89
aS'L97_W'
p90
asS'id_8982'
p91
(lp92
S'L92_S'
p93
aS'L95_D'
p94
aS'L97_P'
p95
asS'id_8983'
p96
(lp97
S'L92_S'
p98
aS'L95_N'
p99
aS'L97_P'
p100
asS'id_1308'
p101
(lp102
S'L89_A'
p103
aS'L92_S'
p104
aS'L95_W'
p105
asS'id_6280'
p106
(lp107
S'L89_A'
p108
aS'L90_K'
p109
aS'L95_W'
p110
aS'L96_Y'
p111
asS'id_11764'
p112
(lp113
S'L92_V'
p114
aS'L93_G'
p115
aS'L96_N'
p116
as.