(dp0
S'101L'
p1
(lp2
S'ILE'
p3
aS'GLY'
p4
aS'ASN'
p5
aS'ASP'
p6
asS'100L'
p7
(lp8
S'PRO'
p9
aS'SER'
p10
aS'ARG'
p11
aS'VAL'
p12
ag5
aS'ALA'
p13
asS'103L'
p14
(lp15
S'PHE'
p16
aS'ASP'
p17
aS'TRP'
p18
ag5
aS'TYR'
p19
asS'106L'
p20
(lp21
S'LEU'
p22
aS'SER'
p23
asS'98L'
p24
(lp25
S'ALA'
p26
aS'LYS'
p27
aS'ASP'
p28
asS'96L'
p29
(lp30
g10
aS'ALA'
p31
asS'102L'
p32
(lp33
g26
ag10
aS'TYR'
p34
asS'97L'
p35
(lp36
g26
aS'GLU'
p37
asS'105L'
p38
(lp39
S'GLN'
p40
ag9
ag18
ag12
aS'ASN'
p41
asS'104L'
p42
(lp43
S'TYR'
p44
ag11
ag5
aS'CYS'
p45
as.